target datalayout = "e-m:e-p270:32:32-p271:32:32-p272:64:64-i64:64-i128:128-f80:128-n8:16:32:64-S128"
target triple = "x86_64-pc-linux-gnu"

%struct.mbedtls_ssl_cookie_ctx = type { %struct.mbedtls_md_context_t, i64 }
%struct.mbedtls_md_context_t = type { ptr, ptr, ptr }

; Function Attrs: nounwind uwtable
define internal i32 @ssl_cookie_hmac(ptr noundef %0, ptr noundef %1, ptr noundef %2, ptr noundef %3, ptr noundef %4, i64 noundef %5) #0 {
  %7 = alloca i32, align 4
  %8 = alloca ptr, align 8
  %9 = alloca ptr, align 8
  %10 = alloca ptr, align 8
  %11 = alloca ptr, align 8
  %12 = alloca ptr, align 8
  %13 = alloca i64, align 8
  %14 = alloca [32 x i8], align 16
  %15 = alloca i32, align 4
  store ptr %0, ptr %8, align 8, !tbaa !22
  store ptr %1, ptr %9, align 8, !tbaa !20
  store ptr %2, ptr %10, align 8, !tbaa !17
  store ptr %3, ptr %11, align 8, !tbaa !20
  store ptr %4, ptr %12, align 8, !tbaa !20
  store i64 %5, ptr %13, align 8, !tbaa !13
  call void @llvm.lifetime.start.p0(i64 32, ptr %14) #8
  br label %16

16:                                               ; preds = %6
  %17 = load ptr, ptr %10, align 8, !tbaa !17
  %18 = load ptr, ptr %17, align 8, !tbaa !20
  %19 = load ptr, ptr %11, align 8, !tbaa !20
  %20 = call i32 @mbedtls_ssl_chk_buf_ptr(ptr noundef %18, ptr noundef %19, i64 noundef 28)
  %21 = icmp ne i32 %20, 0
  br i1 %21, label %22, label %23

22:                                               ; preds = %16
  store i32 -27136, ptr %7, align 4
  store i32 1, ptr %15, align 4
  br label %53

23:                                               ; preds = %16
  br label %24

24:                                               ; preds = %23
  br label %25

25:                                               ; preds = %24
  %26 = load ptr, ptr %8, align 8, !tbaa !22
  %27 = call i32 @mbedtls_md_hmac_reset(ptr noundef %26)
  %28 = icmp ne i32 %27, 0
  br i1 %28, label %45, label %29

29:                                               ; preds = %25
  %30 = load ptr, ptr %8, align 8, !tbaa !22
  %31 = load ptr, ptr %9, align 8, !tbaa !20
  %32 = call i32 @mbedtls_md_hmac_update(ptr noundef %30, ptr noundef %31, i64 noundef 4)
  %33 = icmp ne i32 %32, 0
  br i1 %33, label %45, label %34

34:                                               ; preds = %29
  %35 = load ptr, ptr %8, align 8, !tbaa !22
  %36 = load ptr, ptr %12, align 8, !tbaa !20
  %37 = load i64, ptr %13, align 8, !tbaa !13
  %38 = call i32 @mbedtls_md_hmac_update(ptr noundef %35, ptr noundef %36, i64 noundef %37)
  %39 = icmp ne i32 %38, 0
  br i1 %39, label %45, label %40

40:                                               ; preds = %34
  %41 = load ptr, ptr %8, align 8, !tbaa !22
  %42 = getelementptr inbounds [32 x i8], ptr %14, i64 0, i64 0
  %43 = call i32 @mbedtls_md_hmac_finish(ptr noundef %41, ptr noundef %42)
  %44 = icmp ne i32 %43, 0
  br i1 %44, label %45, label %46

45:                                               ; preds = %40, %34, %29, %25
  store i32 -27648, ptr %7, align 4
  store i32 1, ptr %15, align 4
  br label %53

46:                                               ; preds = %40
  %47 = load ptr, ptr %10, align 8, !tbaa !17
  %48 = load ptr, ptr %47, align 8, !tbaa !20
  %49 = getelementptr inbounds [32 x i8], ptr %14, i64 0, i64 0
  call void @llvm.memcpy.p0.p0.i64(ptr align 1 %48, ptr align 16 %49, i64 28, i1 false)
  %50 = load ptr, ptr %10, align 8, !tbaa !17
  %51 = load ptr, ptr %50, align 8, !tbaa !20
  %52 = getelementptr inbounds i8, ptr %51, i64 28
  store ptr %52, ptr %50, align 8, !tbaa !20
  store i32 0, ptr %7, align 4
  store i32 1, ptr %15, align 4
  br label %53

53:                                               ; preds = %46, %45, %22
  call void @llvm.lifetime.end.p0(i64 32, ptr %14) #8
  %54 = load i32, ptr %7, align 4
  ret i32 %54
}

; Function Attrs: alwaysinline nounwind uwtable
define internal void @mbedtls_put_unaligned_uint32(ptr noundef %0, i32 noundef %1) #5 {
  %3 = alloca ptr, align 8
  %4 = alloca i32, align 4
  store ptr %0, ptr %3, align 8, !tbaa !14
  store i32 %1, ptr %4, align 4, !tbaa !15
  %5 = load ptr, ptr %3, align 8, !tbaa !14
  call void @llvm.memcpy.p0.p0.i64(ptr align 1 %5, ptr align 4 %4, i64 4, i1 false)
  ret void
}

; Function Attrs: inlinehint nounwind uwtable
define internal i32 @mbedtls_ssl_chk_buf_ptr(ptr noundef %0, ptr noundef %1, i64 noundef %2) #3 {
  %4 = alloca ptr, align 8
  %5 = alloca ptr, align 8
  %6 = alloca i64, align 8
  store ptr %0, ptr %4, align 8, !tbaa !20
  store ptr %1, ptr %5, align 8, !tbaa !20
  store i64 %2, ptr %6, align 8, !tbaa !13
  %7 = load ptr, ptr %4, align 8, !tbaa !20
  %8 = load ptr, ptr %5, align 8, !tbaa !20
  %9 = icmp ugt ptr %7, %8
  br i1 %9, label %18, label %10

10:                                               ; preds = %3
  %11 = load i64, ptr %6, align 8, !tbaa !13
  %12 = load ptr, ptr %5, align 8, !tbaa !20
  %13 = load ptr, ptr %4, align 8, !tbaa !20
  %14 = ptrtoint ptr %12 to i64
  %15 = ptrtoint ptr %13 to i64
  %16 = sub i64 %14, %15
  %17 = icmp ugt i64 %11, %16
  br label %18

18:                                               ; preds = %10, %3
  %19 = phi i1 [ true, %3 ], [ %17, %10 ]
  %20 = zext i1 %19 to i32
  ret i32 %20
}

; Function Attrs: nounwind uwtable
define hidden i32 @mbedtls_ssl_cookie_write(ptr noundef %0, ptr noundef %1, ptr noundef %2, ptr noundef %3, i64 noundef %4) #0 {
  %6 = alloca i32, align 4
  %7 = alloca ptr, align 8
  %8 = alloca ptr, align 8
  %9 = alloca ptr, align 8
  %10 = alloca ptr, align 8
  %11 = alloca i64, align 8
  %12 = alloca i32, align 4
  %13 = alloca ptr, align 8
  %14 = alloca i64, align 8
  %15 = alloca i32, align 4
  store ptr %0, ptr %7, align 8, !tbaa !14
  store ptr %1, ptr %8, align 8, !tbaa !17
  store ptr %2, ptr %9, align 8, !tbaa !20
  store ptr %3, ptr %10, align 8, !tbaa !20
  store i64 %4, ptr %11, align 8, !tbaa !13
  call void @llvm.lifetime.start.p0(i64 4, ptr %12) #8
  store i32 -110, ptr %12, align 4, !tbaa !15
  call void @llvm.lifetime.start.p0(i64 8, ptr %13) #8
  %16 = load ptr, ptr %7, align 8, !tbaa !14
  store ptr %16, ptr %13, align 8, !tbaa !3
  call void @llvm.lifetime.start.p0(i64 8, ptr %14) #8
  %17 = load ptr, ptr %13, align 8, !tbaa !3
  %18 = icmp eq ptr %17, null
  br i1 %18, label %22, label %19

19:                                               ; preds = %5
  %20 = load ptr, ptr %10, align 8, !tbaa !20
  %21 = icmp eq ptr %20, null
  br i1 %21, label %22, label %23

22:                                               ; preds = %19, %5
  store i32 -28928, ptr %6, align 4
  store i32 1, ptr %15, align 4
  br label %55

23:                                               ; preds = %19
  br label %24

24:                                               ; preds = %23
  %25 = load ptr, ptr %8, align 8, !tbaa !17
  %26 = load ptr, ptr %25, align 8, !tbaa !20
  %27 = load ptr, ptr %9, align 8, !tbaa !20
  %28 = call i32 @mbedtls_ssl_chk_buf_ptr(ptr noundef %26, ptr noundef %27, i64 noundef 32)
  %29 = icmp ne i32 %28, 0
  br i1 %29, label %30, label %31

30:                                               ; preds = %24
  store i32 -27136, ptr %6, align 4
  store i32 1, ptr %15, align 4
  br label %55

31:                                               ; preds = %24
  br label %32

32:                                               ; preds = %31
  br label %33

33:                                               ; preds = %32
  %34 = call i64 @time(ptr noundef null) #8
  store i64 %34, ptr %14, align 8, !tbaa !13
  %35 = load ptr, ptr %8, align 8, !tbaa !17
  %36 = load ptr, ptr %35, align 8, !tbaa !20
  %37 = getelementptr inbounds i8, ptr %36, i64 0
  %38 = load i64, ptr %14, align 8, !tbaa !13
  %39 = trunc i64 %38 to i32
  %40 = call i32 @llvm.bswap.i32(i32 %39)
  call void @mbedtls_put_unaligned_uint32(ptr noundef %37, i32 noundef %40)
  %41 = load ptr, ptr %8, align 8, !tbaa !17
  %42 = load ptr, ptr %41, align 8, !tbaa !20
  %43 = getelementptr inbounds i8, ptr %42, i64 4
  store ptr %43, ptr %41, align 8, !tbaa !20
  %44 = load ptr, ptr %13, align 8, !tbaa !3
  %45 = getelementptr inbounds nuw %struct.mbedtls_ssl_cookie_ctx, ptr %44, i32 0, i32 0
  %46 = load ptr, ptr %8, align 8, !tbaa !17
  %47 = load ptr, ptr %46, align 8, !tbaa !20
  %48 = getelementptr inbounds i8, ptr %47, i64 -4
  %49 = load ptr, ptr %8, align 8, !tbaa !17
  %50 = load ptr, ptr %9, align 8, !tbaa !20
  %51 = load ptr, ptr %10, align 8, !tbaa !20
  %52 = load i64, ptr %11, align 8, !tbaa !13
  %53 = call i32 @ssl_cookie_hmac(ptr noundef %45, ptr noundef %48, ptr noundef %49, ptr noundef %50, ptr noundef %51, i64 noundef %52)
  store i32 %53, ptr %12, align 4, !tbaa !15
  %54 = load i32, ptr %12, align 4, !tbaa !15
  store i32 %54, ptr %6, align 4
  store i32 1, ptr %15, align 4
  br label %55

55:                                               ; preds = %33, %30, %22
  call void @llvm.lifetime.end.p0(i64 8, ptr %14) #8
  call void @llvm.lifetime.end.p0(i64 8, ptr %13) #8
  call void @llvm.lifetime.end.p0(i64 4, ptr %12) #8
  %56 = load i32, ptr %6, align 4
  ret i32 %56
}