; Function Attrs: nounwind uwtable
define hidden range(i32 -28928, 1) i32 @mbedtls_ssl_cookie_write(ptr noundef %0, ptr noundef captures(none) %1, ptr noundef %2, ptr noundef %3, i64 noundef %4) local_unnamed_addr #0 {
  %6 = alloca [32 x i8], align 16
  %7 = icmp eq ptr %0, null
  %8 = icmp eq ptr %3, null
  %or.cond = or i1 %7, %8
  br i1 %or.cond, label %39, label %9

9:                                                ; preds = %5
  %10 = load ptr, ptr %1, align 8, !tbaa !11
  %11 = icmp ule ptr %10, %2
  %12 = ptrtoint ptr %2 to i64
  %13 = ptrtoint ptr %10 to i64
  %14 = sub i64 %12, %13
  %15 = icmp ugt i64 %14, 31
  %narrow.i.not = and i1 %11, %15
  br i1 %narrow.i.not, label %16, label %39

16:                                               ; preds = %9
  %17 = tail call i64 @time(ptr noundef null) #7
  %18 = load ptr, ptr %1, align 8, !tbaa !11
  %19 = trunc i64 %17 to i32
  %20 = tail call i32 @llvm.bswap.i32(i32 %19)
  store i32 %20, ptr %18, align 1
  %21 = load ptr, ptr %1, align 8, !tbaa !11
  %22 = getelementptr inbounds nuw i8, ptr %21, i64 4
  store ptr %22, ptr %1, align 8, !tbaa !11
  call void @llvm.lifetime.start.p0(i64 32, ptr nonnull %6) #7
  %23 = icmp ule ptr %22, %2
  %24 = ptrtoint ptr %22 to i64
  %25 = sub i64 %12, %24
  %26 = icmp ugt i64 %25, 27
  %narrow.i.not.i = and i1 %23, %26
  br i1 %narrow.i.not.i, label %27, label %ssl_cookie_hmac.exit

27:                                               ; preds = %16
  %28 = tail call i32 @mbedtls_md_hmac_reset(ptr noundef nonnull %0) #7
  %.not11.i = icmp eq i32 %28, 0
  br i1 %.not11.i, label %29, label %ssl_cookie_hmac.exit

29:                                               ; preds = %27
  %30 = tail call i32 @mbedtls_md_hmac_update(ptr noundef nonnull %0, ptr noundef %21, i64 noundef 4) #7
  %.not12.i = icmp eq i32 %30, 0
  br i1 %.not12.i, label %31, label %ssl_cookie_hmac.exit

31:                                               ; preds = %29
  %32 = tail call i32 @mbedtls_md_hmac_update(ptr noundef nonnull %0, ptr noundef nonnull %3, i64 noundef %4) #7
  %.not13.i = icmp eq i32 %32, 0
  br i1 %.not13.i, label %33, label %ssl_cookie_hmac.exit

33:                                               ; preds = %31
  %34 = call i32 @mbedtls_md_hmac_finish(ptr noundef nonnull %0, ptr noundef nonnull %6) #7
  %.not14.i = icmp eq i32 %34, 0
  br i1 %.not14.i, label %35, label %ssl_cookie_hmac.exit

35:                                               ; preds = %33
  %36 = load ptr, ptr %1, align 8, !tbaa !11
  call void @llvm.memcpy.p0.p0.i64(ptr noundef nonnull align 1 dereferenceable(28) %36, ptr noundef nonnull align 16 dereferenceable(28) %6, i64 28, i1 false)
  %37 = load ptr, ptr %1, align 8, !tbaa !11
  %38 = getelementptr inbounds nuw i8, ptr %37, i64 28
  store ptr %38, ptr %1, align 8, !tbaa !11
  br label %ssl_cookie_hmac.exit

ssl_cookie_hmac.exit:                             ; preds = %16, %27, %29, %31, %33, %35
  %.0.i = phi i32 [ 0, %35 ], [ -27136, %16 ], [ -27648, %33 ], [ -27648, %31 ], [ -27648, %29 ], [ -27648, %27 ]
  call void @llvm.lifetime.end.p0(i64 32, ptr nonnull %6) #7
  br label %39

39:                                               ; preds = %9, %5, %ssl_cookie_hmac.exit
  %.0 = phi i32 [ %.0.i, %ssl_cookie_hmac.exit ], [ -28928, %5 ], [ -27136, %9 ]
  ret i32 %.0
}